#include <math.h>
#include <stdio.h>
#include <stdlib.h>
#include <string.h>

int main()
{
	int n,i,a[20001]={0},j,l;
	scanf("%d",&n);
	for(i=0;i<n;i++)
	{
		scanf("%d",&a[i]);
	}
	for(i=0;i<n;i++)
	{
		for(l=(i+1);l<n;l++)
		{
			if(a[l]==a[i])
			{
				for(j=(l+1);j<n;j++)
				{
					a[j-1]=a[j];
				}
			l-=1;
			n--;
			}
		}

	}
	for(i=0;i<n;i++)
	{
		if(i==0)
			printf("%d",a[i]);
		else
			printf(" %d",a[i]);
	}

	return 0;

}